target datalayout = "e-m:e-p270:32:32-p271:32:32-p272:64:64-i64:64-i128:128-f80:128-n8:16:32:64-S128"
target triple = "x86_64-pc-linux-gnu"

%struct.prov_aes_hmac_sha_ctx_st = type { %struct.prov_cipher_ctx_st, %struct.aes_key_st, i64, %union.anon.0, ptr, i32, i32, i64, i64, i64 }
%struct.prov_cipher_ctx_st = type { [16 x i8], [16 x i8], [16 x i8], ptr, %union.anon, i32, i64, i64, i64, i64, i32, i8, i32, ptr, i32, i64, i32, i64, i32, ptr, ptr, ptr }
%union.anon = type { ptr }
%struct.aes_key_st = type { [60 x i32], i32 }
%union.anon.0 = type { i32, [12 x i8] }
%struct.prov_aes_hmac_sha256_ctx_st = type { %struct.prov_aes_hmac_sha_ctx_st, %struct.SHA256state_st, %struct.SHA256state_st, %struct.SHA256state_st }
%struct.SHA256state_st = type { [8 x i32], i32, i32, [16 x i32], i32, i32 }

; Function Attrs: nounwind uwtable
define internal i32 @aesni_cbc_hmac_sha256_init_key(ptr noundef %0, ptr noundef %1, i64 noundef %2) #0 {
  %4 = alloca ptr, align 8
  %5 = alloca ptr, align 8
  %6 = alloca i64, align 8
  %7 = alloca i32, align 4
  %8 = alloca ptr, align 8
  %9 = alloca ptr, align 8
  store ptr %0, ptr %4, align 8, !tbaa !7
  store ptr %1, ptr %5, align 8, !tbaa !10
  store i64 %2, ptr %6, align 8, !tbaa !12
  call void @llvm.lifetime.start.p0(i64 4, ptr %7) #7
  call void @llvm.lifetime.start.p0(i64 8, ptr %8) #7
  %10 = load ptr, ptr %4, align 8, !tbaa !7
  store ptr %10, ptr %8, align 8, !tbaa !14
  call void @llvm.lifetime.start.p0(i64 8, ptr %9) #7
  %11 = load ptr, ptr %4, align 8, !tbaa !7
  store ptr %11, ptr %9, align 8, !tbaa !16
  %12 = load ptr, ptr %8, align 8, !tbaa !14
  %13 = getelementptr inbounds nuw %struct.prov_aes_hmac_sha_ctx_st, ptr %12, i32 0, i32 0
  %14 = getelementptr inbounds nuw %struct.prov_cipher_ctx_st, ptr %13, i32 0, i32 11
  %15 = load i8, ptr %14, align 4
  %16 = lshr i8 %15, 1
  %17 = and i8 %16, 1
  %18 = zext i8 %17 to i32
  %19 = icmp ne i32 %18, 0
  br i1 %19, label %20, label %31

20:                                               ; preds = %3
  %21 = load ptr, ptr %5, align 8, !tbaa !10
  %22 = load ptr, ptr %8, align 8, !tbaa !14
  %23 = getelementptr inbounds nuw %struct.prov_aes_hmac_sha_ctx_st, ptr %22, i32 0, i32 0
  %24 = getelementptr inbounds nuw %struct.prov_cipher_ctx_st, ptr %23, i32 0, i32 6
  %25 = load i64, ptr %24, align 8, !tbaa !18
  %26 = mul i64 %25, 8
  %27 = trunc i64 %26 to i32
  %28 = load ptr, ptr %8, align 8, !tbaa !14
  %29 = getelementptr inbounds nuw %struct.prov_aes_hmac_sha_ctx_st, ptr %28, i32 0, i32 1
  %30 = call i32 @aesni_set_encrypt_key(ptr noundef %21, i32 noundef %27, ptr noundef %29)
  store i32 %30, ptr %7, align 4, !tbaa !3
  br label %42

31:                                               ; preds = %3
  %32 = load ptr, ptr %5, align 8, !tbaa !10
  %33 = load ptr, ptr %8, align 8, !tbaa !14
  %34 = getelementptr inbounds nuw %struct.prov_aes_hmac_sha_ctx_st, ptr %33, i32 0, i32 0
  %35 = getelementptr inbounds nuw %struct.prov_cipher_ctx_st, ptr %34, i32 0, i32 6
  %36 = load i64, ptr %35, align 8, !tbaa !18
  %37 = mul i64 %36, 8
  %38 = trunc i64 %37 to i32
  %39 = load ptr, ptr %8, align 8, !tbaa !14
  %40 = getelementptr inbounds nuw %struct.prov_aes_hmac_sha_ctx_st, ptr %39, i32 0, i32 1
  %41 = call i32 @aesni_set_decrypt_key(ptr noundef %32, i32 noundef %38, ptr noundef %40)
  store i32 %41, ptr %7, align 4, !tbaa !3
  br label %42

42:                                               ; preds = %31, %20
  %43 = load ptr, ptr %9, align 8, !tbaa !16
  %44 = getelementptr inbounds nuw %struct.prov_aes_hmac_sha256_ctx_st, ptr %43, i32 0, i32 1
  %45 = call i32 @SHA256_Init(ptr noundef %44)
  %46 = load ptr, ptr %9, align 8, !tbaa !16
  %47 = getelementptr inbounds nuw %struct.prov_aes_hmac_sha256_ctx_st, ptr %46, i32 0, i32 2
  %48 = load ptr, ptr %9, align 8, !tbaa !16
  %49 = getelementptr inbounds nuw %struct.prov_aes_hmac_sha256_ctx_st, ptr %48, i32 0, i32 1
  call void @llvm.memcpy.p0.p0.i64(ptr align 8 %47, ptr align 8 %49, i64 112, i1 false), !tbaa.struct !25
  %50 = load ptr, ptr %9, align 8, !tbaa !16
  %51 = getelementptr inbounds nuw %struct.prov_aes_hmac_sha256_ctx_st, ptr %50, i32 0, i32 3
  %52 = load ptr, ptr %9, align 8, !tbaa !16
  %53 = getelementptr inbounds nuw %struct.prov_aes_hmac_sha256_ctx_st, ptr %52, i32 0, i32 1
  call void @llvm.memcpy.p0.p0.i64(ptr align 8 %51, ptr align 8 %53, i64 112, i1 false), !tbaa.struct !25
  %54 = load ptr, ptr %8, align 8, !tbaa !14
  %55 = getelementptr inbounds nuw %struct.prov_aes_hmac_sha_ctx_st, ptr %54, i32 0, i32 2
  store i64 -1, ptr %55, align 8, !tbaa !27
  %56 = load ptr, ptr %4, align 8, !tbaa !7
  %57 = getelementptr inbounds nuw %struct.prov_cipher_ctx_st, ptr %56, i32 0, i32 16
  store i32 1, ptr %57, align 8, !tbaa !28
  %58 = load ptr, ptr %4, align 8, !tbaa !7
  %59 = getelementptr inbounds nuw %struct.prov_cipher_ctx_st, ptr %58, i32 0, i32 17
  store i64 48, ptr %59, align 8, !tbaa !29
  %60 = load i32, ptr %7, align 4, !tbaa !3
  %61 = icmp slt i32 %60, 0
  %62 = select i1 %61, i32 0, i32 1
  call void @llvm.lifetime.end.p0(i64 8, ptr %9) #7
  call void @llvm.lifetime.end.p0(i64 8, ptr %8) #7
  call void @llvm.lifetime.end.p0(i64 4, ptr %7) #7
  ret i32 %62
}