; Function Attrs: nounwind uwtable
define internal range(i32 0, 2) i32 @aesni_cbc_hmac_sha256_init_key(ptr noundef %0, ptr noundef %1, i64 %2) #0 {
  %4 = getelementptr inbounds nuw i8, ptr %0, i64 108
  %5 = load i8, ptr %4, align 4
  %6 = and i8 %5, 2
  %.not = icmp eq i8 %6, 0
  %7 = getelementptr inbounds nuw i8, ptr %0, i64 72
  %8 = load i64, ptr %7, align 8, !tbaa !7
  %.tr = trunc i64 %8 to i32
  %9 = shl i32 %.tr, 3
  %10 = getelementptr inbounds nuw i8, ptr %0, i64 192
  br i1 %.not, label %13, label %11

11:                                               ; preds = %3
  %12 = tail call i32 @aesni_set_encrypt_key(ptr noundef %1, i32 noundef %9, ptr noundef nonnull %10) #8
  br label %15

13:                                               ; preds = %3
  %14 = tail call i32 @aesni_set_decrypt_key(ptr noundef %1, i32 noundef %9, ptr noundef nonnull %10) #8
  br label %15

15:                                               ; preds = %13, %11
  %.0 = phi i32 [ %12, %11 ], [ %14, %13 ]
  %16 = getelementptr inbounds nuw i8, ptr %0, i64 504
  %17 = tail call i32 @SHA256_Init(ptr noundef nonnull %16) #8
  %18 = getelementptr inbounds nuw i8, ptr %0, i64 616
  tail call void @llvm.memcpy.p0.p0.i64(ptr noundef nonnull align 8 dereferenceable(112) %18, ptr noundef nonnull align 8 dereferenceable(112) %16, i64 112, i1 false), !tbaa.struct !17
  %19 = getelementptr inbounds nuw i8, ptr %0, i64 728
  tail call void @llvm.memcpy.p0.p0.i64(ptr noundef nonnull align 8 dereferenceable(112) %19, ptr noundef nonnull align 8 dereferenceable(112) %16, i64 112, i1 false), !tbaa.struct !17
  %20 = getelementptr inbounds nuw i8, ptr %0, i64 440
  store i64 -1, ptr %20, align 8, !tbaa !19
  %21 = getelementptr inbounds nuw i8, ptr %0, i64 144
  store i32 1, ptr %21, align 8, !tbaa !20
  %22 = getelementptr inbounds nuw i8, ptr %0, i64 152
  store i64 48, ptr %22, align 8, !tbaa !21
  %23 = icmp sgt i32 %.0, -1
  %24 = zext i1 %23 to i32
  ret i32 %24
}